; Function Attrs: alwaysinline norecurse nounwind uwtable
define internal void @_ZL11orderVectorIN3gmx11BasicVectorIfEEEvNS0_8ArrayRefIK12gmx_cgsort_tEENS3_IT_EES7_S8_.omp_outlined.140(ptr noalias noundef readonly captures(none) %0, ptr noalias readnone captures(none) %1, ptr noundef nonnull readonly align 8 captures(none) dereferenceable(16) %2, ptr noundef nonnull readonly align 8 captures(none) dereferenceable(16) %3, ptr noundef nonnull readonly align 8 captures(none) dereferenceable(16) %4) #19 personality ptr @__gxx_personality_v0 {
  %6 = alloca i64, align 8
  %7 = alloca i64, align 8
  %8 = alloca i64, align 8
  %9 = alloca i32, align 4
  %10 = getelementptr inbounds nuw i8, ptr %2, i64 8
  %.sroa.0.0.copyload.i.i = load ptr, ptr %2, align 8
  %11 = load ptr, ptr %10, align 8, !tbaa !805
  %12 = ptrtoint ptr %11 to i64
  %13 = ptrtoint ptr %.sroa.0.0.copyload.i.i to i64
  %14 = sub i64 %12, %13
  %15 = ashr exact i64 %14, 2
  %16 = icmp sgt i64 %15, 0
  br i1 %16, label %17, label %30

17:                                               ; preds = %5
  %18 = add nsw i64 %15, -1
  call void @llvm.lifetime.start.p0(i64 8, ptr nonnull %6) #20
  store i64 0, ptr %6, align 8, !tbaa !232
  call void @llvm.lifetime.start.p0(i64 8, ptr nonnull %7) #20
  store i64 %18, ptr %7, align 8, !tbaa !232
  call void @llvm.lifetime.start.p0(i64 8, ptr nonnull %8) #20
  store i64 1, ptr %8, align 8, !tbaa !232
  call void @llvm.lifetime.start.p0(i64 4, ptr nonnull %9) #20
  store i32 0, ptr %9, align 4, !tbaa !208
  %19 = load i32, ptr %0, align 4, !tbaa !208
  call void @__kmpc_for_static_init_8(ptr nonnull @1, i32 %19, i32 34, ptr nonnull %9, ptr nonnull %6, ptr nonnull %7, ptr nonnull %8, i64 1, i64 1)
  %20 = load i64, ptr %7, align 8, !tbaa !232
  %21 = call i64 @llvm.smin.i64(i64 %20, i64 %18)
  store i64 %21, ptr %7, align 8, !tbaa !232
  %22 = load i64, ptr %6, align 8, !tbaa !232
  %.not14 = icmp sgt i64 %22, %21
  br i1 %.not14, label %._crit_edge, label %.lr.ph

.lr.ph:                                           ; preds = %17, %.lr.ph
  %.015 = phi i64 [ %29, %.lr.ph ], [ %22, %17 ]
  %23 = load i64, ptr %4, align 8
  %24 = inttoptr i64 %23 to ptr
  %25 = getelementptr inbounds %"class.gmx::BasicVector.14", ptr %24, i64 %.015
  %26 = load i64, ptr %3, align 8
  %27 = inttoptr i64 %26 to ptr
  %28 = getelementptr inbounds %"class.gmx::BasicVector.14", ptr %27, i64 %.015
  call void @llvm.memcpy.p0.p0.i64(ptr noundef nonnull align 4 dereferenceable(12) %28, ptr noundef nonnull align 4 dereferenceable(12) %25, i64 12, i1 false), !tbaa.struct !548
  %29 = add i64 %.015, 1
  %exitcond.not = icmp eq i64 %.015, %21
  br i1 %exitcond.not, label %._crit_edge, label %.lr.ph

._crit_edge:                                      ; preds = %.lr.ph, %17
  call void @__kmpc_for_static_fini(ptr nonnull @1, i32 %19)
  call void @llvm.lifetime.end.p0(i64 4, ptr nonnull %9) #20
  call void @llvm.lifetime.end.p0(i64 8, ptr nonnull %8) #20
  call void @llvm.lifetime.end.p0(i64 8, ptr nonnull %7) #20
  call void @llvm.lifetime.end.p0(i64 8, ptr nonnull %6) #20
  br label %30

30:                                               ; preds = %._crit_edge, %5
  ret void
}